; ModuleID = '61/758.c'
source_filename = "61/758.c"
target datalayout = "e-m:e-p270:32:32-p271:32:32-p272:64:64-i64:64-f80:128-n8:16:32:64-S128"
target triple = "x86_64-pc-linux-gnu"

@.str = private unnamed_addr constant [3 x i8] c"%d\00", align 1
@.str.1 = private unnamed_addr constant [4 x i8] c"%d\0A\00", align 1

; Function Attrs: noinline nounwind uwtable
define dso_local i32 @main() #0 {
  %1 = alloca i32, align 4
  %2 = alloca i32, align 4
  %3 = alloca i32, align 4
  %4 = alloca [20 x i32], align 16
  %5 = alloca i32, align 4
  %6 = alloca [20 x i32], align 16
  store i32 0, i32* %1, align 4
  %7 = bitcast [20 x i32]* %6 to i8*
  call void @llvm.memset.p0i8.i64(i8* align 16 %7, i8 0, i64 80, i1 false)
  %8 = bitcast i8* %7 to <{ i32, i32, [18 x i32] }>*
  %9 = getelementptr inbounds <{ i32, i32, [18 x i32] }>, <{ i32, i32, [18 x i32] }>* %8, i32 0, i32 0
  store i32 1, i32* %9, align 16
  %10 = getelementptr inbounds <{ i32, i32, [18 x i32] }>, <{ i32, i32, [18 x i32] }>* %8, i32 0, i32 1
  store i32 1, i32* %10, align 4
  store i32 2, i32* %2, align 4
  br label %11

11:                                               ; preds = %29, %0
  %12 = load i32, i32* %2, align 4
  %13 = icmp slt i32 %12, 20
  br i1 %13, label %14, label %32

14:                                               ; preds = %11
  %15 = load i32, i32* %2, align 4
  %16 = sub nsw i32 %15, 2
  %17 = sext i32 %16 to i64
  %18 = getelementptr inbounds [20 x i32], [20 x i32]* %6, i64 0, i64 %17
  %19 = load i32, i32* %18, align 4
  %20 = load i32, i32* %2, align 4
  %21 = sub nsw i32 %20, 1
  %22 = sext i32 %21 to i64
  %23 = getelementptr inbounds [20 x i32], [20 x i32]* %6, i64 0, i64 %22
  %24 = load i32, i32* %23, align 4
  %25 = add nsw i32 %19, %24
  %26 = load i32, i32* %2, align 4
  %27 = sext i32 %26 to i64
  %28 = getelementptr inbounds [20 x i32], [20 x i32]* %6, i64 0, i64 %27
  store i32 %25, i32* %28, align 4
  br label %29

29:                                               ; preds = %14
  %30 = load i32, i32* %2, align 4
  %31 = add nsw i32 %30, 1
  store i32 %31, i32* %2, align 4
  br label %11

32:                                               ; preds = %11
  %33 = call i32 (i8*, ...) @__isoc99_scanf(i8* getelementptr inbounds ([3 x i8], [3 x i8]* @.str, i64 0, i64 0), i32* %3)
  store i32 1, i32* %2, align 4
  br label %34

34:                                               ; preds = %48, %32
  %35 = load i32, i32* %2, align 4
  %36 = load i32, i32* %3, align 4
  %37 = icmp sle i32 %35, %36
  br i1 %37, label %38, label %51

38:                                               ; preds = %34
  %39 = call i32 (i8*, ...) @__isoc99_scanf(i8* getelementptr inbounds ([3 x i8], [3 x i8]* @.str, i64 0, i64 0), i32* %5)
  %40 = load i32, i32* %5, align 4
  %41 = sub nsw i32 %40, 1
  %42 = sext i32 %41 to i64
  %43 = getelementptr inbounds [20 x i32], [20 x i32]* %6, i64 0, i64 %42
  %44 = load i32, i32* %43, align 4
  %45 = load i32, i32* %2, align 4
  %46 = sext i32 %45 to i64
  %47 = getelementptr inbounds [20 x i32], [20 x i32]* %4, i64 0, i64 %46
  store i32 %44, i32* %47, align 4
  br label %48

48:                                               ; preds = %38
  %49 = load i32, i32* %2, align 4
  %50 = add nsw i32 %49, 1
  store i32 %50, i32* %2, align 4
  br label %34

51:                                               ; preds = %34
  store i32 1, i32* %2, align 4
  br label %52

52:                                               ; preds = %62, %51
  %53 = load i32, i32* %2, align 4
  %54 = load i32, i32* %3, align 4
  %55 = icmp sle i32 %53, %54
  br i1 %55, label %56, label %65

56:                                               ; preds = %52
  %57 = load i32, i32* %2, align 4
  %58 = sext i32 %57 to i64
  %59 = getelementptr inbounds [20 x i32], [20 x i32]* %4, i64 0, i64 %58
  %60 = load i32, i32* %59, align 4
  %61 = call i32 (i8*, ...) @printf(i8* getelementptr inbounds ([4 x i8], [4 x i8]* @.str.1, i64 0, i64 0), i32 %60)
  br label %62

62:                                               ; preds = %56
  %63 = load i32, i32* %2, align 4
  %64 = add nsw i32 %63, 1
  store i32 %64, i32* %2, align 4
  br label %52

65:                                               ; preds = %52
  %66 = call i32 @getchar()
  %67 = call i32 @getchar()
  ret i32 0
}

; Function Attrs: argmemonly nounwind willreturn
declare void @llvm.memset.p0i8.i64(i8* nocapture writeonly, i8, i64, i1 immarg) #1

declare dso_local i32 @__isoc99_scanf(i8*, ...) #2

declare dso_local i32 @printf(i8*, ...) #2

declare dso_local i32 @getchar() #2


!llvm.module.flags = !{!0}
!llvm.ident = !{!1}

!0 = !{i32 1, !"wchar_size", i32 4}
!1 = !{!"clang version 10.0.0-4ubuntu1 "}
